; ModuleID = '46/102.c'
source_filename = "46/102.c"
target datalayout = "e-m:e-p270:32:32-p271:32:32-p272:64:64-i64:64-f80:128-n8:16:32:64-S128"
target triple = "x86_64-pc-linux-gnu"

@.str = private unnamed_addr constant [5 x i8] c"%d%d\00", align 1
@.str.1 = private unnamed_addr constant [3 x i8] c"%d\00", align 1
@.str.2 = private unnamed_addr constant [4 x i8] c"%d\0A\00", align 1

; Function Attrs: noinline nounwind uwtable
define dso_local i32 @main() #0 {
  %1 = alloca i32, align 4
  %2 = alloca [100 x [100 x i32]], align 16
  %3 = alloca i32, align 4
  %4 = alloca i32, align 4
  %5 = alloca i32, align 4
  %6 = alloca i32, align 4
  %7 = alloca i32, align 4
  store i32 0, i32* %1, align 4
  %8 = call i32 (i8*, ...) @__isoc99_scanf(i8* getelementptr inbounds ([5 x i8], [5 x i8]* @.str, i64 0, i64 0), i32* %3, i32* %4)
  store i32 0, i32* %5, align 4
  br label %9

9:                                                ; preds = %30, %0
  %10 = load i32, i32* %5, align 4
  %11 = load i32, i32* %3, align 4
  %12 = icmp slt i32 %10, %11
  br i1 %12, label %13, label %33

13:                                               ; preds = %9
  store i32 0, i32* %6, align 4
  br label %14

14:                                               ; preds = %26, %13
  %15 = load i32, i32* %6, align 4
  %16 = load i32, i32* %4, align 4
  %17 = icmp slt i32 %15, %16
  br i1 %17, label %18, label %29

18:                                               ; preds = %14
  %19 = load i32, i32* %5, align 4
  %20 = sext i32 %19 to i64
  %21 = getelementptr inbounds [100 x [100 x i32]], [100 x [100 x i32]]* %2, i64 0, i64 %20
  %22 = load i32, i32* %6, align 4
  %23 = sext i32 %22 to i64
  %24 = getelementptr inbounds [100 x i32], [100 x i32]* %21, i64 0, i64 %23
  %25 = call i32 (i8*, ...) @__isoc99_scanf(i8* getelementptr inbounds ([3 x i8], [3 x i8]* @.str.1, i64 0, i64 0), i32* %24)
  br label %26

26:                                               ; preds = %18
  %27 = load i32, i32* %6, align 4
  %28 = add nsw i32 %27, 1
  store i32 %28, i32* %6, align 4
  br label %14

29:                                               ; preds = %14
  br label %30

30:                                               ; preds = %29
  %31 = load i32, i32* %5, align 4
  %32 = add nsw i32 %31, 1
  store i32 %32, i32* %5, align 4
  br label %9

33:                                               ; preds = %9
  store i32 0, i32* %7, align 4
  br label %34

34:                                               ; preds = %164, %33
  %35 = load i32, i32* %7, align 4
  %36 = load i32, i32* %4, align 4
  %37 = load i32, i32* %7, align 4
  %38 = sub nsw i32 %36, %37
  %39 = icmp sge i32 %35, %38
  br i1 %39, label %40, label %41

40:                                               ; preds = %34
  br label %167

41:                                               ; preds = %34
  %42 = load i32, i32* %7, align 4
  store i32 %42, i32* %5, align 4
  %43 = load i32, i32* %7, align 4
  store i32 %43, i32* %6, align 4
  br label %44

44:                                               ; preds = %59, %41
  %45 = load i32, i32* %6, align 4
  %46 = load i32, i32* %4, align 4
  %47 = load i32, i32* %7, align 4
  %48 = sub nsw i32 %46, %47
  %49 = icmp slt i32 %45, %48
  br i1 %49, label %50, label %62

50:                                               ; preds = %44
  %51 = load i32, i32* %5, align 4
  %52 = sext i32 %51 to i64
  %53 = getelementptr inbounds [100 x [100 x i32]], [100 x [100 x i32]]* %2, i64 0, i64 %52
  %54 = load i32, i32* %6, align 4
  %55 = sext i32 %54 to i64
  %56 = getelementptr inbounds [100 x i32], [100 x i32]* %53, i64 0, i64 %55
  %57 = load i32, i32* %56, align 4
  %58 = call i32 (i8*, ...) @printf(i8* getelementptr inbounds ([4 x i8], [4 x i8]* @.str.2, i64 0, i64 0), i32 %57)
  br label %59

59:                                               ; preds = %50
  %60 = load i32, i32* %6, align 4
  %61 = add nsw i32 %60, 1
  store i32 %61, i32* %6, align 4
  br label %44

62:                                               ; preds = %44
  %63 = load i32, i32* %7, align 4
  %64 = add nsw i32 %63, 1
  %65 = load i32, i32* %3, align 4
  %66 = load i32, i32* %7, align 4
  %67 = sub nsw i32 %65, %66
  %68 = icmp sge i32 %64, %67
  br i1 %68, label %69, label %70

69:                                               ; preds = %62
  br label %167

70:                                               ; preds = %62
  %71 = load i32, i32* %7, align 4
  %72 = add nsw i32 %71, 1
  store i32 %72, i32* %5, align 4
  %73 = load i32, i32* %4, align 4
  %74 = load i32, i32* %7, align 4
  %75 = sub nsw i32 %73, %74
  %76 = sub nsw i32 %75, 1
  store i32 %76, i32* %6, align 4
  br label %77

77:                                               ; preds = %92, %70
  %78 = load i32, i32* %5, align 4
  %79 = load i32, i32* %3, align 4
  %80 = load i32, i32* %7, align 4
  %81 = sub nsw i32 %79, %80
  %82 = icmp slt i32 %78, %81
  br i1 %82, label %83, label %95

83:                                               ; preds = %77
  %84 = load i32, i32* %5, align 4
  %85 = sext i32 %84 to i64
  %86 = getelementptr inbounds [100 x [100 x i32]], [100 x [100 x i32]]* %2, i64 0, i64 %85
  %87 = load i32, i32* %6, align 4
  %88 = sext i32 %87 to i64
  %89 = getelementptr inbounds [100 x i32], [100 x i32]* %86, i64 0, i64 %88
  %90 = load i32, i32* %89, align 4
  %91 = call i32 (i8*, ...) @printf(i8* getelementptr inbounds ([4 x i8], [4 x i8]* @.str.2, i64 0, i64 0), i32 %90)
  br label %92

92:                                               ; preds = %83
  %93 = load i32, i32* %5, align 4
  %94 = add nsw i32 %93, 1
  store i32 %94, i32* %5, align 4
  br label %77

95:                                               ; preds = %77
  br label %96

96:                                               ; preds = %95
  %97 = load i32, i32* %4, align 4
  %98 = load i32, i32* %7, align 4
  %99 = sub nsw i32 %97, %98
  %100 = sub nsw i32 %99, 2
  %101 = load i32, i32* %7, align 4
  %102 = icmp slt i32 %100, %101
  br i1 %102, label %103, label %104

103:                                              ; preds = %96
  br label %167

104:                                              ; preds = %96
  %105 = load i32, i32* %3, align 4
  %106 = load i32, i32* %7, align 4
  %107 = sub nsw i32 %105, %106
  %108 = sub nsw i32 %107, 1
  store i32 %108, i32* %5, align 4
  %109 = load i32, i32* %4, align 4
  %110 = load i32, i32* %7, align 4
  %111 = sub nsw i32 %109, %110
  %112 = sub nsw i32 %111, 2
  store i32 %112, i32* %6, align 4
  br label %113

113:                                              ; preds = %127, %104
  %114 = load i32, i32* %6, align 4
  %115 = load i32, i32* %7, align 4
  %116 = sub nsw i32 %115, 1
  %117 = icmp sgt i32 %114, %116
  br i1 %117, label %118, label %130

118:                                              ; preds = %113
  %119 = load i32, i32* %5, align 4
  %120 = sext i32 %119 to i64
  %121 = getelementptr inbounds [100 x [100 x i32]], [100 x [100 x i32]]* %2, i64 0, i64 %120
  %122 = load i32, i32* %6, align 4
  %123 = sext i32 %122 to i64
  %124 = getelementptr inbounds [100 x i32], [100 x i32]* %121, i64 0, i64 %123
  %125 = load i32, i32* %124, align 4
  %126 = call i32 (i8*, ...) @printf(i8* getelementptr inbounds ([4 x i8], [4 x i8]* @.str.2, i64 0, i64 0), i32 %125)
  br label %127

127:                                              ; preds = %118
  %128 = load i32, i32* %6, align 4
  %129 = add nsw i32 %128, -1
  store i32 %129, i32* %6, align 4
  br label %113

130:                                              ; preds = %113
  br label %131

131:                                              ; preds = %130
  %132 = load i32, i32* %3, align 4
  %133 = load i32, i32* %7, align 4
  %134 = sub nsw i32 %132, %133
  %135 = sub nsw i32 %134, 2
  %136 = load i32, i32* %7, align 4
  %137 = add nsw i32 %136, 1
  %138 = icmp slt i32 %135, %137
  br i1 %138, label %139, label %140

139:                                              ; preds = %131
  br label %167

140:                                              ; preds = %131
  %141 = load i32, i32* %3, align 4
  %142 = load i32, i32* %7, align 4
  %143 = sub nsw i32 %141, %142
  %144 = sub nsw i32 %143, 2
  store i32 %144, i32* %5, align 4
  %145 = load i32, i32* %7, align 4
  store i32 %145, i32* %6, align 4
  br label %146

146:                                              ; preds = %159, %140
  %147 = load i32, i32* %5, align 4
  %148 = load i32, i32* %7, align 4
  %149 = icmp sgt i32 %147, %148
  br i1 %149, label %150, label %162

150:                                              ; preds = %146
  %151 = load i32, i32* %5, align 4
  %152 = sext i32 %151 to i64
  %153 = getelementptr inbounds [100 x [100 x i32]], [100 x [100 x i32]]* %2, i64 0, i64 %152
  %154 = load i32, i32* %6, align 4
  %155 = sext i32 %154 to i64
  %156 = getelementptr inbounds [100 x i32], [100 x i32]* %153, i64 0, i64 %155
  %157 = load i32, i32* %156, align 4
  %158 = call i32 (i8*, ...) @printf(i8* getelementptr inbounds ([4 x i8], [4 x i8]* @.str.2, i64 0, i64 0), i32 %157)
  br label %159

159:                                              ; preds = %150
  %160 = load i32, i32* %5, align 4
  %161 = add nsw i32 %160, -1
  store i32 %161, i32* %5, align 4
  br label %146

162:                                              ; preds = %146
  br label %163

163:                                              ; preds = %162
  br label %164

164:                                              ; preds = %163
  %165 = load i32, i32* %7, align 4
  %166 = add nsw i32 %165, 1
  store i32 %166, i32* %7, align 4
  br label %34

167:                                              ; preds = %139, %103, %69, %40
  %168 = load i32, i32* %1, align 4
  ret i32 %168
}

declare dso_local i32 @__isoc99_scanf(i8*, ...) #1

declare dso_local i32 @printf(i8*, ...) #1


!llvm.module.flags = !{!0}
!llvm.ident = !{!1}

!0 = !{i32 1, !"wchar_size", i32 4}
!1 = !{!"clang version 10.0.0-4ubuntu1 "}
